; Function Attrs: mustprogress nofree norecurse nosync nounwind willreturn memory(argmem: write) uwtable
define void @_ZN3gmx26FreeEnergyPerturbationData7Element22registerDomDecCallbackEv(ptr dead_on_unwind noalias writable writeonly sret(%"class.std::function") align 8 captures(none) initializes((0, 32)) %0, ptr noundef nonnull align 8 dereferenceable(80) %1) unnamed_addr #3 align 2 personality ptr @__gxx_personality_v0 {
  %3 = ptrtoint ptr %1 to i64
  %4 = getelementptr inbounds nuw i8, ptr %0, i64 16
  %5 = getelementptr inbounds nuw i8, ptr %0, i64 24
  %6 = getelementptr inbounds nuw i8, ptr %0, i64 8
  store i64 0, ptr %6, align 8
  store i64 %3, ptr %0, align 8, !tbaa !22
  store ptr @"_ZNSt17_Function_handlerIFvvEZN3gmx26FreeEnergyPerturbationData7Element22registerDomDecCallbackEvE3$_0E9_M_invokeERKSt9_Any_data", ptr %5, align 8, !tbaa !26
  store ptr @"_ZNSt17_Function_handlerIFvvEZN3gmx26FreeEnergyPerturbationData7Element22registerDomDecCallbackEvE3$_0E10_M_managerERSt9_Any_dataRKS6_St18_Manager_operation", ptr %4, align 8, !tbaa !29
  ret void
}